#include <math.h>
#include <stdio.h>
#include <stdlib.h>
#include <string.h>

int f(int x,int y,int n,int m)
{
    if (n>0) {
    //int i,j;
    //f(x,y,n)=0;
    //for (i=x-1;i<=x+1;i++)
    //for (j=y-1;j<=y+1;j++)
    //f(x,y,n)=f(x,y,n)+f(i,j,n-1);
    //return f(x,y,n)+f(x,y,n-1);}
    return (f(x-1,y-1,n-1,m)+f(x-1,y,n-1,m)+f(x-1,y+1,n-1,m)+f(x,y-1,n-1,m)+2*f(x,y,n-1,m)+f(x,y+1,n-1,m)+f(x+1,y-1,n-1,m)+f(x+1,y,n-1,m)+f(x+1,y+1,n-1,m));}
    else if (x==5&&y==5)
    return m;
    else
    return 0;
}
main()
{
      int i,j,m,n;
      scanf("%d %d",&m,&n);
      int a[12][12][n];
      //a[5][5][0]=m;
      for (i=1;i<=9;i++)
      {
          for (j=1;j<=9;j++)
          {
              a[i][j][n]=f(i,j,n,m);
          }
      }
      for (i=1;i<=9;i++)
      {
          for (j=1;j<=8;j++)
          {
              printf("%d ",a[i][j][n]);
          }
          printf("%d\n",a[i][9][n]);
      }
      getchar();
      getchar();
      getchar();
}